; Function Attrs: mustprogress uwtable
define void @_ZN9grpc_core26TlsServerSecurityConnector28ServerPendingVerifierRequestC2ENS_13RefCountedPtrIS0_EEP12grpc_closure8tsi_peer(ptr noundef nonnull align 8 captures(none) dereferenceable(120) initializes((0, 16), (112, 120)) %0, ptr noundef captures(none) %1, ptr noundef %2, ptr %3, i64 %4) unnamed_addr #3 align 2 personality ptr @__gxx_personality_v0 {
  %6 = alloca %struct.tsi_peer, align 8
  store ptr %3, ptr %6, align 8
  %7 = getelementptr inbounds nuw i8, ptr %6, i64 8
  store i64 %4, ptr %7, align 8
  store ptr null, ptr %0, align 8, !tbaa !258
  %8 = load ptr, ptr %1, align 8, !tbaa !258
  store ptr %8, ptr %0, align 8, !tbaa !258
  store ptr null, ptr %1, align 8, !tbaa !258
  %9 = getelementptr inbounds nuw i8, ptr %0, i64 112
  store ptr %2, ptr %9, align 8, !tbaa !274
  %10 = getelementptr inbounds nuw i8, ptr %0, i64 8
  invoke fastcc void @_ZN9grpc_core12_GLOBAL__N_126PendingVerifierRequestInitEPKc8tsi_peerP42grpc_tls_custom_verification_check_request(ptr noundef null, ptr %3, i64 %4, ptr noundef %10)
          to label %11 unwind label %13

11:                                               ; preds = %5
  invoke void @_Z17tsi_peer_destructP8tsi_peer(ptr noundef nonnull %6)
          to label %12 unwind label %13

12:                                               ; preds = %11
  ret void

13:                                               ; preds = %11, %5
  %14 = landingpad { ptr, i32 }
          cleanup
  %15 = load ptr, ptr %0, align 8, !tbaa !258
  %.not.i = icmp eq ptr %15, null
  br i1 %.not.i, label %_ZN9grpc_core13RefCountedPtrINS_26TlsServerSecurityConnectorEED2Ev.exit, label %16

16:                                               ; preds = %13
  %17 = getelementptr inbounds nuw i8, ptr %15, i64 8
  %18 = atomicrmw sub ptr %17, i64 1 acq_rel, align 8
  %19 = icmp eq i64 %18, 1
  br i1 %19, label %20, label %_ZN9grpc_core13RefCountedPtrINS_26TlsServerSecurityConnectorEED2Ev.exit, !prof !25

20:                                               ; preds = %16
  %21 = load ptr, ptr %15, align 8, !tbaa !26
  %22 = getelementptr inbounds nuw i8, ptr %21, i64 8
  %23 = load ptr, ptr %22, align 8
  call void %23(ptr noundef nonnull align 8 dereferenceable(32) %15) #28
  br label %_ZN9grpc_core13RefCountedPtrINS_26TlsServerSecurityConnectorEED2Ev.exit

_ZN9grpc_core13RefCountedPtrINS_26TlsServerSecurityConnectorEED2Ev.exit: ; preds = %13, %16, %20
  resume { ptr, i32 } %14
}